; Function Attrs: mustprogress nounwind uwtable
define dso_local void @_ZN4node14PrincipalRealmD2Ev(ptr noundef nonnull align 8 dereferenceable(872) %this) unnamed_addr #3 align 2 {
entry:
  %handle_scope = alloca %"class.v8::HandleScope", align 8
  store ptr getelementptr inbounds ({ [132 x ptr] }, ptr @_ZTVN4node14PrincipalRealmE, i64 0, i32 0, i64 2), ptr %this, align 8
  %isolate_.i = getelementptr inbounds i8, ptr %this, i64 184
  %0 = load ptr, ptr %isolate_.i, align 8
  call void @_ZN2v811HandleScopeC1EPNS_7IsolateE(ptr noundef nonnull align 8 dereferenceable(24) %handle_scope, ptr noundef %0) #18
  %env_ = getelementptr inbounds i8, ptr %this, i64 176
  %1 = load ptr, ptr %env_, align 8
  %vtable = load ptr, ptr %this, align 8
  %vfn = getelementptr inbounds i8, ptr %vtable, i64 64
  %2 = load ptr, ptr %vfn, align 8
  %call2 = call ptr %2(ptr noundef nonnull align 8 dereferenceable(872) %this) #18
  call void @_ZN4node11Environment19UnassignFromContextEN2v85LocalINS1_7ContextEEE(ptr noundef nonnull align 8 dereferenceable(2872) %1, ptr %call2) #18
  call void @_ZN2v811HandleScopeD1Ev(ptr noundef nonnull align 8 dereferenceable(24) %handle_scope) #18
  call void @_ZN4node5RealmD2Ev(ptr noundef nonnull align 8 dereferenceable(872) %this) #18
  ret void
}